target datalayout = "e-m:e-p270:32:32-p271:32:32-p272:64:64-i64:64-i128:128-f80:128-n8:16:32:64-S128"
target triple = "x86_64-unknown-linux-gnu"

%"class.icu_75::UnicodeString" = type { %"class.icu_75::Replaceable", %"union.icu_75::UnicodeString::StackBufferOrFields" }
%"class.icu_75::Replaceable" = type { %"class.icu_75::UObject" }
%"class.icu_75::UObject" = type { ptr }
%"union.icu_75::UnicodeString::StackBufferOrFields" = type { %struct.anon.0, [32 x i8] }
%struct.anon.0 = type { i16, i32, i32, ptr }
%"class.icu_75::UnicodeStringAppendable" = type { %"class.icu_75::Appendable", ptr }
%"class.icu_75::Appendable" = type { %"class.icu_75::UObject" }

; Function Attrs: mustprogress nounwind uwtable
define linkonce_odr noundef signext i8 @_ZNK6icu_7513UnicodeString10isWritableEv(ptr noundef nonnull align 8 dereferenceable(64) %this) #0 comdat align 2 {
entry:
  %this.addr = alloca ptr, align 8
  store ptr %this, ptr %this.addr, align 8
  %this1 = load ptr, ptr %this.addr, align 8
  %fUnion = getelementptr inbounds %"class.icu_75::UnicodeString", ptr %this1, i32 0, i32 1
  %fLengthAndFlags = getelementptr inbounds %struct.anon.0, ptr %fUnion, i32 0, i32 0
  %0 = load i16, ptr %fLengthAndFlags, align 8
  %conv = sext i16 %0 to i32
  %and = and i32 %conv, 17
  %tobool = icmp ne i32 %and, 0
  %lnot = xor i1 %tobool, true
  %conv2 = zext i1 %lnot to i8
  ret i8 %conv2
}

; Function Attrs: mustprogress uwtable
define noundef signext i8 @_ZN6icu_7523UnicodeStringAppendable12appendStringEPKDsi(ptr noundef nonnull align 8 dereferenceable(16) %this, ptr noundef %s, i32 noundef %length) unnamed_addr #3 align 2 {
entry:
  %this.addr = alloca ptr, align 8
  %s.addr = alloca ptr, align 8
  %length.addr = alloca i32, align 4
  store ptr %this, ptr %this.addr, align 8
  store ptr %s, ptr %s.addr, align 8
  store i32 %length, ptr %length.addr, align 4
  %this1 = load ptr, ptr %this.addr, align 8
  %str = getelementptr inbounds %"class.icu_75::UnicodeStringAppendable", ptr %this1, i32 0, i32 1
  %0 = load ptr, ptr %str, align 8
  %1 = load ptr, ptr %s.addr, align 8
  %2 = load i32, ptr %length.addr, align 4
  %call = call noundef nonnull align 8 dereferenceable(64) ptr @_ZN6icu_7513UnicodeString8doAppendEPKDsii(ptr noundef nonnull align 8 dereferenceable(64) %0, ptr noundef %1, i32 noundef 0, i32 noundef %2)
  %call2 = call noundef signext i8 @_ZNK6icu_7513UnicodeString10isWritableEv(ptr noundef nonnull align 8 dereferenceable(64) %call)
  ret i8 %call2
}