; Function Attrs: mustprogress uwtable
define noundef signext i8 @_ZN6icu_7523UnicodeStringAppendable12appendStringEPKDsi(ptr nocapture noundef nonnull readonly align 8 dereferenceable(16) %this, ptr noundef %s, i32 noundef %length) unnamed_addr #5 align 2 {
entry:
  %str = getelementptr inbounds i8, ptr %this, i64 8
  %0 = load ptr, ptr %str, align 8
  %call = tail call noundef nonnull align 8 dereferenceable(64) ptr @_ZN6icu_7513UnicodeString8doAppendEPKDsii(ptr noundef nonnull align 8 dereferenceable(64) %0, ptr noundef %s, i32 noundef 0, i32 noundef %length)
  %fUnion.i = getelementptr inbounds i8, ptr %call, i64 8
  %1 = load i16, ptr %fUnion.i, align 8
  %2 = and i16 %1, 17
  %tobool.not.i = icmp eq i16 %2, 0
  %conv2.i = zext i1 %tobool.not.i to i8
  ret i8 %conv2.i
}